target datalayout = "e-m:e-p270:32:32-p271:32:32-p272:64:64-i64:64-i128:128-f80:128-n8:16:32:64-S128"
target triple = "x86_64-pc-linux-gnu"

%struct.UFILE = type { ptr, ptr, ptr, %struct.u_localized_string, [1024 x i16], i8, i32 }
%struct.u_localized_string = type { ptr, ptr, ptr, %struct.ULocaleBundle }
%struct.ULocaleBundle = type { ptr, [5 x ptr], i8 }

; Function Attrs: mustprogress uwtable
define void @u_fflush_77(ptr noundef %0) #0 {
  %2 = alloca ptr, align 8
  store ptr %0, ptr %2, align 8, !tbaa !13
  %3 = load ptr, ptr %2, align 8, !tbaa !13
  call void @_Z23ufile_flush_translit_77P5UFILE(ptr noundef %3)
  %4 = load ptr, ptr %2, align 8, !tbaa !13
  call void @_Z17ufile_flush_io_77P5UFILE(ptr noundef %4)
  %5 = load ptr, ptr %2, align 8, !tbaa !13
  %6 = getelementptr inbounds nuw %struct.UFILE, ptr %5, i32 0, i32 1
  %7 = load ptr, ptr %6, align 8, !tbaa !22
  %8 = icmp ne ptr %7, null
  br i1 %8, label %9, label %14

9:                                                ; preds = %1
  %10 = load ptr, ptr %2, align 8, !tbaa !13
  %11 = getelementptr inbounds nuw %struct.UFILE, ptr %10, i32 0, i32 1
  %12 = load ptr, ptr %11, align 8, !tbaa !22
  %13 = call i32 @fflush(ptr noundef %12)
  br label %31

14:                                               ; preds = %1
  %15 = load ptr, ptr %2, align 8, !tbaa !13
  %16 = getelementptr inbounds nuw %struct.UFILE, ptr %15, i32 0, i32 3
  %17 = getelementptr inbounds nuw %struct.u_localized_string, ptr %16, i32 0, i32 0
  %18 = load ptr, ptr %17, align 8, !tbaa !24
  %19 = load ptr, ptr %2, align 8, !tbaa !13
  %20 = getelementptr inbounds nuw %struct.UFILE, ptr %19, i32 0, i32 3
  %21 = getelementptr inbounds nuw %struct.u_localized_string, ptr %20, i32 0, i32 1
  %22 = load ptr, ptr %21, align 8, !tbaa !25
  %23 = icmp ult ptr %18, %22
  br i1 %23, label %24, label %30

24:                                               ; preds = %14
  %25 = load ptr, ptr %2, align 8, !tbaa !13
  %26 = getelementptr inbounds nuw %struct.UFILE, ptr %25, i32 0, i32 3
  %27 = getelementptr inbounds nuw %struct.u_localized_string, ptr %26, i32 0, i32 0
  %28 = load ptr, ptr %27, align 8, !tbaa !24
  %29 = getelementptr inbounds nuw i16, ptr %28, i32 1
  store ptr %29, ptr %27, align 8, !tbaa !24
  store i16 0, ptr %28, align 2, !tbaa !37
  br label %30

30:                                               ; preds = %24, %14
  br label %31

31:                                               ; preds = %30, %9
  ret void
}

; Function Attrs: mustprogress uwtable
define void @u_frewind_77(ptr noundef %0) #0 {
  %2 = alloca ptr, align 8
  store ptr %0, ptr %2, align 8, !tbaa !13
  %3 = load ptr, ptr %2, align 8, !tbaa !13
  call void @u_fflush_77(ptr noundef %3)
  %4 = load ptr, ptr %2, align 8, !tbaa !13
  %5 = getelementptr inbounds nuw %struct.UFILE, ptr %4, i32 0, i32 2
  %6 = load ptr, ptr %5, align 8, !tbaa !26
  call void @ucnv_reset_77(ptr noundef %6)
  %7 = load ptr, ptr %2, align 8, !tbaa !13
  %8 = getelementptr inbounds nuw %struct.UFILE, ptr %7, i32 0, i32 1
  %9 = load ptr, ptr %8, align 8, !tbaa !22
  %10 = icmp ne ptr %9, null
  br i1 %10, label %11, label %27

11:                                               ; preds = %1
  %12 = load ptr, ptr %2, align 8, !tbaa !13
  %13 = getelementptr inbounds nuw %struct.UFILE, ptr %12, i32 0, i32 1
  %14 = load ptr, ptr %13, align 8, !tbaa !22
  call void @rewind(ptr noundef %14)
  %15 = load ptr, ptr %2, align 8, !tbaa !13
  %16 = getelementptr inbounds nuw %struct.UFILE, ptr %15, i32 0, i32 4
  %17 = getelementptr inbounds [1024 x i16], ptr %16, i64 0, i64 0
  %18 = load ptr, ptr %2, align 8, !tbaa !13
  %19 = getelementptr inbounds nuw %struct.UFILE, ptr %18, i32 0, i32 3
  %20 = getelementptr inbounds nuw %struct.u_localized_string, ptr %19, i32 0, i32 1
  store ptr %17, ptr %20, align 8, !tbaa !25
  %21 = load ptr, ptr %2, align 8, !tbaa !13
  %22 = getelementptr inbounds nuw %struct.UFILE, ptr %21, i32 0, i32 4
  %23 = getelementptr inbounds [1024 x i16], ptr %22, i64 0, i64 0
  %24 = load ptr, ptr %2, align 8, !tbaa !13
  %25 = getelementptr inbounds nuw %struct.UFILE, ptr %24, i32 0, i32 3
  %26 = getelementptr inbounds nuw %struct.u_localized_string, ptr %25, i32 0, i32 0
  store ptr %23, ptr %26, align 8, !tbaa !24
  br label %35

27:                                               ; preds = %1
  %28 = load ptr, ptr %2, align 8, !tbaa !13
  %29 = getelementptr inbounds nuw %struct.UFILE, ptr %28, i32 0, i32 3
  %30 = getelementptr inbounds nuw %struct.u_localized_string, ptr %29, i32 0, i32 2
  %31 = load ptr, ptr %30, align 8, !tbaa !23
  %32 = load ptr, ptr %2, align 8, !tbaa !13
  %33 = getelementptr inbounds nuw %struct.UFILE, ptr %32, i32 0, i32 3
  %34 = getelementptr inbounds nuw %struct.u_localized_string, ptr %33, i32 0, i32 0
  store ptr %31, ptr %34, align 8, !tbaa !24
  br label %35

35:                                               ; preds = %27, %11
  ret void
}