; Function Attrs: mustprogress uwtable
define void @u_frewind_77(ptr noundef %0) local_unnamed_addr #0 {
  tail call void @_Z23ufile_flush_translit_77P5UFILE(ptr noundef %0)
  tail call void @_Z17ufile_flush_io_77P5UFILE(ptr noundef %0)
  %2 = getelementptr inbounds nuw i8, ptr %0, i64 8
  %3 = load ptr, ptr %2, align 8, !tbaa !17
  %.not.i = icmp eq ptr %3, null
  br i1 %.not.i, label %6, label %4

4:                                                ; preds = %1
  %5 = tail call i32 @fflush(ptr noundef nonnull %3)
  br label %u_fflush_77.exit

6:                                                ; preds = %1
  %7 = getelementptr inbounds nuw i8, ptr %0, i64 24
  %8 = load ptr, ptr %7, align 8, !tbaa !19
  %9 = getelementptr inbounds nuw i8, ptr %0, i64 32
  %10 = load ptr, ptr %9, align 8, !tbaa !20
  %11 = icmp ult ptr %8, %10
  br i1 %11, label %12, label %u_fflush_77.exit

12:                                               ; preds = %6
  %13 = getelementptr inbounds nuw i8, ptr %8, i64 2
  store ptr %13, ptr %7, align 8, !tbaa !19
  store i16 0, ptr %8, align 2, !tbaa !27
  br label %u_fflush_77.exit

u_fflush_77.exit:                                 ; preds = %4, %6, %12
  %14 = getelementptr inbounds nuw i8, ptr %0, i64 16
  %15 = load ptr, ptr %14, align 8, !tbaa !22
  tail call void @ucnv_reset_77(ptr noundef %15)
  %16 = load ptr, ptr %2, align 8, !tbaa !17
  %.not = icmp eq ptr %16, null
  br i1 %.not, label %20, label %17

17:                                               ; preds = %u_fflush_77.exit
  tail call void @rewind(ptr noundef nonnull %16)
  %18 = getelementptr inbounds nuw i8, ptr %0, i64 104
  %19 = getelementptr inbounds nuw i8, ptr %0, i64 32
  store ptr %18, ptr %19, align 8, !tbaa !20
  br label %23

20:                                               ; preds = %u_fflush_77.exit
  %21 = getelementptr inbounds nuw i8, ptr %0, i64 40
  %22 = load ptr, ptr %21, align 8, !tbaa !18
  br label %23

23:                                               ; preds = %20, %17
  %.sink = phi ptr [ %22, %20 ], [ %18, %17 ]
  %24 = getelementptr inbounds nuw i8, ptr %0, i64 24
  store ptr %.sink, ptr %24, align 8, !tbaa !19
  ret void
}